#include <math.h>
#include <stdio.h>
#include <stdlib.h>
#include <string.h>

int main()
{
    int n,i;
    char s[1000];
    gets(s);
    n=0;
    for(i=0;s[i]!='\0';i++){
        if(s[i]==' '){
            if(s[i+1]!=' '){
                printf("%d,",n);
                n=0;
            }
            else{continue;}
        }
        else{
            n++;
        }
    }
    printf("%d",n);
    return 0;
}

